Certificate:
    Data:
        Version: 3 (0x2)
        Serial Number: 2 (0x2)
    Signature Algorithm: sha256WithRSAEncryption
        Issuer: O=Test Org, CN=Test Org rauc CA Development
        Validity
            Not Before: Jan  1 00:00:00 1970 GMT
            Not After : Dec 31 23:59:59 9999 GMT
        Subject: O=Test Org, CN=Test Org Development-1
        Subject Public Key Info:
            Public Key Algorithm: rsaEncryption
                Public-Key: (2048 bit)
                Modulus:
                    00:bd:08:bb:77:d3:6f:64:fe:5d:97:1c:5a:a0:3a:
                    fa:68:d3:a5:16:7b:db:62:ad:40:07:f3:dd:36:42:
                    3e:ed:39:f5:9e:d8:b6:a2:d6:9c:ac:e9:97:14:a3:
                    78:58:fa:76:f8:49:2c:be:7b:47:41:f4:bc:41:96:
                    60:c5:26:59:e4:34:4a:f7:8e:73:77:bf:d9:88:d3:
                    05:36:2e:bc:85:5b:6f:3e:1b:93:e7:9b:b7:d2:f2:
                    2f:1a:d3:1b:d6:26:45:32:a3:72:fb:45:c3:58:af:
                    b0:ac:c3:05:a3:29:df:05:ba:e3:38:84:af:02:54:
                    f1:16:b2:ba:39:ae:2e:1b:85:d0:12:1f:27:75:02:
                    2e:d2:20:9a:3d:96:46:c1:bb:11:4c:8e:cc:ae:91:
                    e0:3e:14:1f:f7:1c:de:d2:39:40:8b:b7:e5:3b:a1:
                    df:1a:6d:51:8e:15:08:4d:af:e1:70:12:76:76:b3:
                    1a:d4:cc:06:4b:80:f7:5e:f5:76:63:f2:8d:1a:0a:
                    1e:28:f0:32:cd:ec:ca:d8:81:51:53:b3:de:07:33:
                    7e:1c:60:22:c2:84:0f:2b:5c:cd:44:02:73:4a:39:
                    5a:15:2c:04:23:d5:f0:6c:e8:cf:dd:3b:65:d0:0c:
                    31:a5:59:63:ed:03:dd:73:eb:66:3e:a8:00:c3:0f:
                    5e:33
                Exponent: 65537 (0x10001)
        X509v3 extensions:
            X509v3 Subject Key Identifier: 
                8C:FA:B9:C0:CD:4A:AC:20:5E:0F:80:C6:C3:DB:BA:D8:71:E6:2D:10
            X509v3 Authority Key Identifier: 
                keyid:F4:EA:86:69:EB:BB:1E:0F:4F:4E:CE:EC:5C:67:F0:B0:0A:43:0A:90
                DirName:/O=Test Org/CN=Test Org rauc CA Development
                serial:01

            X509v3 Basic Constraints: 
                CA:FALSE
    Signature Algorithm: sha256WithRSAEncryption
         d9:e9:24:b9:a5:53:15:ec:0c:c3:1d:f7:21:97:64:4a:e9:e5:
         39:18:ed:05:88:84:26:a7:85:8a:21:9f:f9:31:7e:91:19:c3:
         89:bc:08:b0:fa:e4:f8:cb:73:a5:9c:2b:6b:f7:41:ff:90:0f:
         b1:b4:7b:c9:8b:ce:af:ef:53:bf:36:45:56:02:7a:b3:e2:84:
         ed:c5:38:f1:b4:e2:ff:bc:8f:5a:8b:ca:8d:c0:22:5f:68:da:
         13:2d:5c:1d:7e:6e:df:aa:97:06:21:25:99:de:34:2c:15:5e:
         69:b8:bb:11:33:b6:2b:de:69:e5:e8:c1:bf:e3:e0:8c:03:ff:
         63:fc:da:a1:91:28:98:a0:16:b6:46:ef:ea:e9:41:2a:b8:68:
         42:85:83:13:21:4a:a1:21:60:91:0e:c3:b6:74:13:be:eb:8a:
         53:fb:64:38:64:ab:08:a9:c0:db:2f:f3:42:a9:e3:15:fc:d1:
         29:25:dd:4a:69:4e:aa:b9:a4:28:56:55:71:25:63:19:7e:b1:
         98:14:43:61:ef:78:fa:ae:59:00:c9:1c:c9:c5:8e:7d:f4:ff:
         84:4b:ea:dc:c1:f6:06:48:92:3e:b4:e4:03:f2:52:13:8c:93:
         fe:7b:23:23:8b:f2:82:dd:bb:47:3d:80:37:2d:6e:1a:30:5d:
         9b:22:63:bc
-----BEGIN CERTIFICATE-----
MIIDfzCCAmegAwIBAgIBAjANBgkqhkiG9w0BAQsFADA6MREwDwYDVQQKDAhUZXN0
IE9yZzElMCMGA1UEAwwcVGVzdCBPcmcgcmF1YyBDQSBEZXZlbG9wbWVudDAiGA8x
OTcwMDEwMTAwMDAwMFoYDzk5OTkxMjMxMjM1OTU5WjA0MREwDwYDVQQKDAhUZXN0
IE9yZzEfMB0GA1UEAwwWVGVzdCBPcmcgRGV2ZWxvcG1lbnQtMTCCASIwDQYJKoZI
hvcNAQEBBQADggEPADCCAQoCggEBAL0Iu3fTb2T+XZccWqA6+mjTpRZ722KtQAfz
3TZCPu059Z7YtqLWnKzplxSjeFj6dvhJLL57R0H0vEGWYMUmWeQ0SveOc3e/2YjT
BTYuvIVbbz4bk+ebt9LyLxrTG9YmRTKjcvtFw1ivsKzDBaMp3wW64ziErwJU8Ray
ujmuLhuF0BIfJ3UCLtIgmj2WRsG7EUyOzK6R4D4UH/cc3tI5QIu35Tuh3xptUY4V
CE2v4XASdnazGtTMBkuA9171dmPyjRoKHijwMs3sytiBUVOz3gczfhxgIsKEDytc
zUQCc0o5WhUsBCPV8Gzoz907ZdAMMaVZY+0D3XPrZj6oAMMPXjMCAwEAAaOBkTCB
jjAdBgNVHQ4EFgQUjPq5wM1KrCBeD4DGw9u62HHmLRAwYgYDVR0jBFswWYAU9OqG
aeu7Hg9PTs7sXGfwsApDCpChPqQ8MDoxETAPBgNVBAoMCFRlc3QgT3JnMSUwIwYD
VQQDDBxUZXN0IE9yZyByYXVjIENBIERldmVsb3BtZW50ggEBMAkGA1UdEwQCMAAw
DQYJKoZIhvcNAQELBQADggEBANnpJLmlUxXsDMMd9yGXZErp5TkY7QWIhCanhYoh
n/kxfpEZw4m8CLD65PjLc6WcK2v3Qf+QD7G0e8mLzq/vU782RVYCerPihO3FOPG0
4v+8j1qLyo3AIl9o2hMtXB1+bt+qlwYhJZneNCwVXmm4uxEztiveaeXowb/j4IwD
/2P82qGRKJigFrZG7+rpQSq4aEKFgxMhSqEhYJEOw7Z0E77rilP7ZDhkqwipwNsv
80Kp4xX80Skl3UppTqq5pChWVXElYxl+sZgUQ2HvePquWQDJHMnFjn30/4RL6tzB
9gZIkj605APyUhOMk/57IyOL8oLdu0c9gDctbhowXZsiY7w=
-----END CERTIFICATE-----
