Certificate:
    Data:
        Version: 3 (0x2)
        Serial Number: 1 (0x1)
    Signature Algorithm: sha256WithRSAEncryption
        Issuer: O=Test Org, CN=Test Org rauc CA Development
        Validity
            Not Before: Jan  1 00:00:00 1970 GMT
            Not After : Dec 31 23:59:59 9999 GMT
        Subject: O=Test Org, CN=Test Org rauc CA Development
        Subject Public Key Info:
            Public Key Algorithm: rsaEncryption
                Public-Key: (2048 bit)
                Modulus:
                    00:db:a2:fa:b5:3f:b9:07:d6:be:45:a1:ba:45:3b:
                    9b:7d:55:16:73:4d:d7:48:96:75:df:d4:92:d9:40:
                    3d:ed:7d:e7:2e:c5:b9:8e:5a:90:dc:20:f8:c7:54:
                    05:b6:94:b8:ca:16:35:59:86:3e:a4:1d:57:19:8d:
                    c3:97:3b:91:1a:24:24:4d:39:f5:cc:6e:13:05:9b:
                    ef:13:c1:a4:92:f4:d9:8c:1e:03:94:16:7c:d5:6c:
                    23:3b:3b:e2:31:7a:2b:42:35:83:f0:8e:e6:d9:ab:
                    81:17:46:77:29:9d:d3:46:43:29:cd:28:16:35:0a:
                    6f:bb:cf:50:0a:5f:68:a9:46:f9:b9:30:29:95:11:
                    42:c5:c3:13:40:df:c5:0e:3a:84:02:08:94:b0:5c:
                    7b:e5:eb:0f:6e:97:0c:49:0e:c1:8d:ab:40:79:1a:
                    b9:7a:eb:ff:be:10:f7:b2:d8:53:fb:4d:49:85:39:
                    e3:64:ce:ed:22:37:30:e9:6b:f3:a2:f8:be:33:1b:
                    99:13:4d:8f:ac:8a:d6:9d:e8:7f:35:07:85:32:cf:
                    38:b1:ee:bc:e5:df:43:23:3c:2d:c9:8c:c9:94:e8:
                    1b:63:40:7f:2e:7a:33:65:77:40:d2:28:a8:2c:96:
                    fb:a7:4f:9c:5d:8a:84:4a:5a:55:6b:dd:fc:85:7d:
                    e9:79
                Exponent: 65537 (0x10001)
        X509v3 extensions:
            X509v3 Subject Key Identifier: 
                F4:EA:86:69:EB:BB:1E:0F:4F:4E:CE:EC:5C:67:F0:B0:0A:43:0A:90
            X509v3 Authority Key Identifier: 
                keyid:F4:EA:86:69:EB:BB:1E:0F:4F:4E:CE:EC:5C:67:F0:B0:0A:43:0A:90
                DirName:/O=Test Org/CN=Test Org rauc CA Development
                serial:01

            X509v3 Basic Constraints: 
                CA:TRUE
    Signature Algorithm: sha256WithRSAEncryption
         d3:e8:1b:b3:fe:24:ee:58:9e:39:a5:06:c5:bf:93:05:61:86:
         b6:5a:da:1f:c1:04:ff:13:e8:13:28:7f:09:9b:39:9c:59:ed:
         7d:4a:cd:1a:e7:5b:97:8c:e4:b8:1c:c3:af:36:d3:0e:92:b0:
         41:5a:c7:5f:db:20:f3:54:e2:f1:a5:ce:10:aa:7b:78:aa:82:
         d1:cd:c4:33:b3:02:58:b9:d5:8e:55:9c:0a:9b:83:29:b1:1f:
         ae:bb:1e:88:95:94:98:31:a4:0a:00:c6:df:05:9c:91:bf:1e:
         44:2e:bd:c5:f8:c2:68:e2:29:2e:86:b6:0b:fe:95:8a:d3:12:
         83:b8:f8:a4:77:2a:5c:69:72:bc:ac:df:f7:d0:d0:52:1e:4f:
         20:37:fd:5b:41:de:09:4d:41:58:b4:a8:ce:f4:34:70:51:af:
         83:c0:87:02:53:b9:2d:83:27:a3:b0:0f:15:20:a3:5c:47:74:
         40:d4:e6:4b:15:42:c9:a3:67:fe:89:e4:fe:22:10:9a:fd:ac:
         7a:67:9a:e0:a8:6e:b4:98:02:df:61:15:56:16:43:0a:65:44:
         83:0b:6e:c7:6d:43:86:74:e5:da:f2:99:a7:d9:74:ce:65:45:
         b2:0f:67:27:81:91:c4:96:1f:94:bd:33:89:d4:c4:b2:37:e8:
         8a:a6:c5:8f
-----BEGIN CERTIFICATE-----
MIIDiDCCAnCgAwIBAgIBATANBgkqhkiG9w0BAQsFADA6MREwDwYDVQQKDAhUZXN0
IE9yZzElMCMGA1UEAwwcVGVzdCBPcmcgcmF1YyBDQSBEZXZlbG9wbWVudDAiGA8x
OTcwMDEwMTAwMDAwMFoYDzk5OTkxMjMxMjM1OTU5WjA6MREwDwYDVQQKDAhUZXN0
IE9yZzElMCMGA1UEAwwcVGVzdCBPcmcgcmF1YyBDQSBEZXZlbG9wbWVudDCCASIw
DQYJKoZIhvcNAQEBBQADggEPADCCAQoCggEBANui+rU/uQfWvkWhukU7m31VFnNN
10iWdd/UktlAPe195y7FuY5akNwg+MdUBbaUuMoWNVmGPqQdVxmNw5c7kRokJE05
9cxuEwWb7xPBpJL02YweA5QWfNVsIzs74jF6K0I1g/CO5tmrgRdGdymd00ZDKc0o
FjUKb7vPUApfaKlG+bkwKZURQsXDE0DfxQ46hAIIlLBce+XrD26XDEkOwY2rQHka
uXrr/74Q97LYU/tNSYU542TO7SI3MOlr86L4vjMbmRNNj6yK1p3ofzUHhTLPOLHu
vOXfQyM8LcmMyZToG2NAfy56M2V3QNIoqCyW+6dPnF2KhEpaVWvd/IV96XkCAwEA
AaOBlDCBkTAdBgNVHQ4EFgQU9OqGaeu7Hg9PTs7sXGfwsApDCpAwYgYDVR0jBFsw
WYAU9OqGaeu7Hg9PTs7sXGfwsApDCpChPqQ8MDoxETAPBgNVBAoMCFRlc3QgT3Jn
MSUwIwYDVQQDDBxUZXN0IE9yZyByYXVjIENBIERldmVsb3BtZW50ggEBMAwGA1Ud
EwQFMAMBAf8wDQYJKoZIhvcNAQELBQADggEBANPoG7P+JO5YnjmlBsW/kwVhhrZa
2h/BBP8T6BMofwmbOZxZ7X1KzRrnW5eM5Lgcw6820w6SsEFax1/bIPNU4vGlzhCq
e3iqgtHNxDOzAli51Y5VnAqbgymxH667HoiVlJgxpAoAxt8FnJG/HkQuvcX4wmji
KS6Gtgv+lYrTEoO4+KR3Klxpcrys3/fQ0FIeTyA3/VtB3glNQVi0qM70NHBRr4PA
hwJTuS2DJ6OwDxUgo1xHdEDU5ksVQsmjZ/6J5P4iEJr9rHpnmuCobrSYAt9hFVYW
QwplRIMLbsdtQ4Z05drymafZdM5lRbIPZyeBkcSWH5S9M4nUxLI36IqmxY8=
-----END CERTIFICATE-----
